; ModuleID = '17/1348.c'
source_filename = "17/1348.c"
target datalayout = "e-m:e-p270:32:32-p271:32:32-p272:64:64-i64:64-f80:128-n8:16:32:64-S128"
target triple = "x86_64-pc-linux-gnu"

@.str = private unnamed_addr constant [3 x i8] c"%d\00", align 1
@.str.1 = private unnamed_addr constant [3 x i8] c"%s\00", align 1
@.str.2 = private unnamed_addr constant [7 x i8] c"%s\0A%s\0A\00", align 1

; Function Attrs: noinline nounwind uwtable
define dso_local i32 @main() #0 {
  %1 = alloca i32, align 4
  %2 = alloca [1000 x i8], align 16
  %3 = alloca [1000 x i8], align 16
  %4 = alloca i32, align 4
  %5 = alloca i32, align 4
  %6 = alloca i32, align 4
  %7 = alloca i8, align 1
  %8 = alloca i32, align 4
  store i32 0, i32* %1, align 4
  %9 = call i32 (i8*, ...) @__isoc99_scanf(i8* getelementptr inbounds ([3 x i8], [3 x i8]* @.str, i64 0, i64 0), i32* %5)
  br label %10

10:                                               ; preds = %129, %0
  %11 = load i32, i32* %5, align 4
  %12 = add nsw i32 %11, -1
  store i32 %12, i32* %5, align 4
  %13 = icmp sgt i32 %11, 0
  br i1 %13, label %14, label %133

14:                                               ; preds = %10
  %15 = getelementptr inbounds [1000 x i8], [1000 x i8]* %2, i64 0, i64 0
  %16 = call i32 (i8*, ...) @__isoc99_scanf(i8* getelementptr inbounds ([3 x i8], [3 x i8]* @.str.1, i64 0, i64 0), i8* %15)
  %17 = getelementptr inbounds [1000 x i8], [1000 x i8]* %2, i64 0, i64 0
  %18 = call i64 @strlen(i8* %17) #4
  %19 = trunc i64 %18 to i32
  store i32 %19, i32* %4, align 4
  %20 = getelementptr inbounds [1000 x i8], [1000 x i8]* %3, i64 0, i64 0
  %21 = load i32, i32* %4, align 4
  %22 = sext i32 %21 to i64
  call void @llvm.memset.p0i8.i64(i8* align 16 %20, i8 32, i64 %22, i1 false)
  %23 = load i32, i32* %4, align 4
  %24 = sext i32 %23 to i64
  %25 = getelementptr inbounds [1000 x i8], [1000 x i8]* %3, i64 0, i64 %24
  store i8 0, i8* %25, align 1
  store i32 0, i32* %6, align 4
  br label %26

26:                                               ; preds = %126, %14
  %27 = load i32, i32* %6, align 4
  %28 = load i32, i32* %4, align 4
  %29 = icmp slt i32 %27, %28
  br i1 %29, label %30, label %129

30:                                               ; preds = %26
  %31 = load i32, i32* %6, align 4
  %32 = sext i32 %31 to i64
  %33 = getelementptr inbounds [1000 x i8], [1000 x i8]* %2, i64 0, i64 %32
  %34 = load i8, i8* %33, align 1
  %35 = sext i8 %34 to i32
  %36 = icmp eq i32 %35, 40
  br i1 %36, label %51, label %37

37:                                               ; preds = %30
  %38 = load i32, i32* %6, align 4
  %39 = sext i32 %38 to i64
  %40 = getelementptr inbounds [1000 x i8], [1000 x i8]* %2, i64 0, i64 %39
  %41 = load i8, i8* %40, align 1
  %42 = sext i8 %41 to i32
  %43 = icmp eq i32 %42, 91
  br i1 %43, label %51, label %44

44:                                               ; preds = %37
  %45 = load i32, i32* %6, align 4
  %46 = sext i32 %45 to i64
  %47 = getelementptr inbounds [1000 x i8], [1000 x i8]* %2, i64 0, i64 %46
  %48 = load i8, i8* %47, align 1
  %49 = sext i8 %48 to i32
  %50 = icmp eq i32 %49, 123
  br i1 %50, label %51, label %55

51:                                               ; preds = %44, %37, %30
  %52 = load i32, i32* %6, align 4
  %53 = sext i32 %52 to i64
  %54 = getelementptr inbounds [1000 x i8], [1000 x i8]* %3, i64 0, i64 %53
  store i8 36, i8* %54, align 1
  br label %55

55:                                               ; preds = %51, %44
  store i8 32, i8* %7, align 1
  %56 = load i32, i32* %6, align 4
  %57 = sext i32 %56 to i64
  %58 = getelementptr inbounds [1000 x i8], [1000 x i8]* %2, i64 0, i64 %57
  %59 = load i8, i8* %58, align 1
  %60 = sext i8 %59 to i32
  %61 = icmp eq i32 %60, 41
  br i1 %61, label %62, label %63

62:                                               ; preds = %55
  store i8 40, i8* %7, align 1
  br label %81

63:                                               ; preds = %55
  %64 = load i32, i32* %6, align 4
  %65 = sext i32 %64 to i64
  %66 = getelementptr inbounds [1000 x i8], [1000 x i8]* %2, i64 0, i64 %65
  %67 = load i8, i8* %66, align 1
  %68 = sext i8 %67 to i32
  %69 = icmp eq i32 %68, 93
  br i1 %69, label %70, label %71

70:                                               ; preds = %63
  store i8 91, i8* %7, align 1
  br label %80

71:                                               ; preds = %63
  %72 = load i32, i32* %6, align 4
  %73 = sext i32 %72 to i64
  %74 = getelementptr inbounds [1000 x i8], [1000 x i8]* %2, i64 0, i64 %73
  %75 = load i8, i8* %74, align 1
  %76 = sext i8 %75 to i32
  %77 = icmp eq i32 %76, 125
  br i1 %77, label %78, label %79

78:                                               ; preds = %71
  store i8 123, i8* %7, align 1
  br label %79

79:                                               ; preds = %78, %71
  br label %80

80:                                               ; preds = %79, %70
  br label %81

81:                                               ; preds = %80, %62
  %82 = load i8, i8* %7, align 1
  %83 = sext i8 %82 to i32
  %84 = icmp ne i32 %83, 32
  br i1 %84, label %85, label %125

85:                                               ; preds = %81
  %86 = load i32, i32* %6, align 4
  %87 = sub nsw i32 %86, 1
  store i32 %87, i32* %8, align 4
  br label %88

88:                                               ; preds = %113, %85
  %89 = load i32, i32* %8, align 4
  %90 = icmp sge i32 %89, 0
  br i1 %90, label %91, label %116

91:                                               ; preds = %88
  %92 = load i32, i32* %8, align 4
  %93 = sext i32 %92 to i64
  %94 = getelementptr inbounds [1000 x i8], [1000 x i8]* %3, i64 0, i64 %93
  %95 = load i8, i8* %94, align 1
  %96 = sext i8 %95 to i32
  %97 = icmp eq i32 %96, 36
  br i1 %97, label %98, label %112

98:                                               ; preds = %91
  %99 = load i32, i32* %8, align 4
  %100 = sext i32 %99 to i64
  %101 = getelementptr inbounds [1000 x i8], [1000 x i8]* %2, i64 0, i64 %100
  %102 = load i8, i8* %101, align 1
  %103 = sext i8 %102 to i32
  %104 = load i8, i8* %7, align 1
  %105 = sext i8 %104 to i32
  %106 = icmp eq i32 %103, %105
  br i1 %106, label %107, label %111

107:                                              ; preds = %98
  %108 = load i32, i32* %8, align 4
  %109 = sext i32 %108 to i64
  %110 = getelementptr inbounds [1000 x i8], [1000 x i8]* %3, i64 0, i64 %109
  store i8 32, i8* %110, align 1
  store i8 32, i8* %7, align 1
  br label %111

111:                                              ; preds = %107, %98
  br label %116

112:                                              ; preds = %91
  br label %113

113:                                              ; preds = %112
  %114 = load i32, i32* %8, align 4
  %115 = add nsw i32 %114, -1
  store i32 %115, i32* %8, align 4
  br label %88

116:                                              ; preds = %111, %88
  %117 = load i8, i8* %7, align 1
  %118 = sext i8 %117 to i32
  %119 = icmp ne i32 %118, 32
  br i1 %119, label %120, label %124

120:                                              ; preds = %116
  %121 = load i32, i32* %6, align 4
  %122 = sext i32 %121 to i64
  %123 = getelementptr inbounds [1000 x i8], [1000 x i8]* %3, i64 0, i64 %122
  store i8 63, i8* %123, align 1
  br label %124

124:                                              ; preds = %120, %116
  br label %125

125:                                              ; preds = %124, %81
  br label %126

126:                                              ; preds = %125
  %127 = load i32, i32* %6, align 4
  %128 = add nsw i32 %127, 1
  store i32 %128, i32* %6, align 4
  br label %26

129:                                              ; preds = %26
  %130 = getelementptr inbounds [1000 x i8], [1000 x i8]* %2, i64 0, i64 0
  %131 = getelementptr inbounds [1000 x i8], [1000 x i8]* %3, i64 0, i64 0
  %132 = call i32 (i8*, ...) @printf(i8* getelementptr inbounds ([7 x i8], [7 x i8]* @.str.2, i64 0, i64 0), i8* %130, i8* %131)
  br label %10

133:                                              ; preds = %10
  %134 = load i32, i32* %1, align 4
  ret i32 %134
}

declare dso_local i32 @__isoc99_scanf(i8*, ...) #1

; Function Attrs: nounwind readonly
declare dso_local i64 @strlen(i8*) #2

; Function Attrs: argmemonly nounwind willreturn
declare void @llvm.memset.p0i8.i64(i8* nocapture writeonly, i8, i64, i1 immarg) #3

declare dso_local i32 @printf(i8*, ...) #1


!llvm.module.flags = !{!0}
!llvm.ident = !{!1}

!0 = !{i32 1, !"wchar_size", i32 4}
!1 = !{!"clang version 10.0.0-4ubuntu1 "}
